; Function Attrs: mustprogress nofree norecurse nosync nounwind willreturn memory(read, argmem: none, inaccessiblemem: none) uwtable
define hidden noundef range(i32 1, 65536) i32 @_ZN10VM_Version13cores_per_cpuEv() local_unnamed_addr #3 align 2 {
  %1 = load i32, ptr getelementptr inbounds (i8, ptr @_ZN10VM_Version11_cpuid_infoE, i64 4), align 4
  switch i32 %1, label %34 [
    i32 1970169159, label %2
    i32 1869052232, label %16
    i32 1752462657, label %16
    i32 1953391939, label %20
    i32 1750278176, label %20
  ]

2:                                                ; preds = %0
  %3 = load i32, ptr @_ZN10VM_Version11_cpuid_infoE, align 8
  %4 = icmp ugt i32 %3, 10
  br i1 %4, label %_ZN10VM_Version27supports_processor_topologyEv.exit, label %.thread

_ZN10VM_Version27supports_processor_topologyEv.exit: ; preds = %2
  %5 = load i32, ptr getelementptr inbounds (i8, ptr @_ZN10VM_Version11_cpuid_infoE, i64 72), align 8
  %6 = and i32 %5, 31
  %7 = load i32, ptr getelementptr inbounds (i8, ptr @_ZN10VM_Version11_cpuid_infoE, i64 76), align 4
  %8 = and i32 %7, 65535
  %9 = or i32 %8, %6
  %.not24 = icmp eq i32 %9, 0
  br i1 %.not24, label %.thread, label %10

10:                                               ; preds = %_ZN10VM_Version27supports_processor_topologyEv.exit
  %11 = load i32, ptr getelementptr inbounds (i8, ptr @_ZN10VM_Version11_cpuid_infoE, i64 92), align 4
  %.lhs.trunc = trunc i32 %11 to i16
  %.rhs.trunc = trunc i32 %7 to i16
  %12 = udiv i16 %.lhs.trunc, %.rhs.trunc
  %.zext = zext i16 %12 to i32
  %.not25 = icmp ugt i16 %.rhs.trunc, %.lhs.trunc
  br i1 %.not25, label %.thread, label %34

.thread:                                          ; preds = %2, %_ZN10VM_Version27supports_processor_topologyEv.exit, %10
  %13 = load i32, ptr getelementptr inbounds (i8, ptr @_ZN10VM_Version11_cpuid_infoE, i64 32), align 8
  %14 = lshr i32 %13, 26
  %15 = add nuw nsw i32 %14, 1
  br label %34

16:                                               ; preds = %0, %0
  %17 = load i32, ptr getelementptr inbounds (i8, ptr @_ZN10VM_Version11_cpuid_infoE, i64 240), align 8
  %18 = and i32 %17, 255
  %19 = add nuw nsw i32 %18, 1
  br label %34

20:                                               ; preds = %0, %0
  %21 = load i32, ptr @_ZN10VM_Version11_cpuid_infoE, align 8
  %22 = icmp ugt i32 %21, 10
  br i1 %22, label %_ZN10VM_Version27supports_processor_topologyEv.exit13, label %.thread17

_ZN10VM_Version27supports_processor_topologyEv.exit13: ; preds = %20
  %23 = load i32, ptr getelementptr inbounds (i8, ptr @_ZN10VM_Version11_cpuid_infoE, i64 72), align 8
  %24 = and i32 %23, 31
  %25 = load i32, ptr getelementptr inbounds (i8, ptr @_ZN10VM_Version11_cpuid_infoE, i64 76), align 4
  %26 = and i32 %25, 65535
  %27 = or i32 %26, %24
  %.not = icmp eq i32 %27, 0
  br i1 %.not, label %.thread17, label %28

28:                                               ; preds = %_ZN10VM_Version27supports_processor_topologyEv.exit13
  %29 = load i32, ptr getelementptr inbounds (i8, ptr @_ZN10VM_Version11_cpuid_infoE, i64 92), align 4
  %.lhs.trunc20 = trunc i32 %29 to i16
  %.rhs.trunc21 = trunc i32 %25 to i16
  %30 = udiv i16 %.lhs.trunc20, %.rhs.trunc21
  %.zext22 = zext i16 %30 to i32
  %.not23 = icmp ugt i16 %.rhs.trunc21, %.lhs.trunc20
  br i1 %.not23, label %.thread17, label %34

.thread17:                                        ; preds = %20, %_ZN10VM_Version27supports_processor_topologyEv.exit13, %28
  %31 = load i32, ptr getelementptr inbounds (i8, ptr @_ZN10VM_Version11_cpuid_infoE, i64 32), align 8
  %32 = lshr i32 %31, 26
  %33 = add nuw nsw i32 %32, 1
  br label %34

34:                                               ; preds = %0, %16, %.thread17, %28, %.thread, %10
  %.2 = phi i32 [ %15, %.thread ], [ %.zext, %10 ], [ %19, %16 ], [ %33, %.thread17 ], [ %.zext22, %28 ], [ 1, %0 ]
  ret i32 %.2
}